target datalayout = "e-m:e-p270:32:32-p271:32:32-p272:64:64-i64:64-i128:128-f80:128-n8:16:32:64-S128"
target triple = "x86_64-pc-linux-gnu"

%struct.test_fixture = type { ptr, ptr, ptr, ptr, ptr, ptr, i32, ptr, ptr, ptr, i32, i32, i32 }
%struct.ossl_cmp_ctx_st = type { ptr, ptr, ptr, i32, ptr, ptr, ptr, ptr, ptr, i32, ptr, ptr, i32, i32, i32, i32, i64, ptr, ptr, i32, i32, ptr, ptr, ptr, ptr, ptr, i32, i32, i32, ptr, ptr, ptr, ptr, ptr, i64, ptr, i32, i32, ptr, ptr, ptr, ptr, ptr, ptr, ptr, ptr, i32, i32, ptr, ptr, i32, ptr, ptr, i32, ptr, ptr, i32, i32, ptr, ptr, i32, i32, ptr, ptr, i32, ptr, i32, ptr, i32, ptr, ptr, ptr, ptr, ptr, ptr }

@root = internal global ptr null, align 8
@.str.14 = private unnamed_addr constant [35 x i8] c"../openssl/test/cmp_protect_test.c\00", align 1
@.str.79 = private unnamed_addr constant [18 x i8] c"fixture->expected\00", align 1
@.str.96 = private unnamed_addr constant [6 x i8] c"chain\00", align 1
@.str.97 = private unnamed_addr constant [2 x i8] c"0\00", align 1
@.str.98 = private unnamed_addr constant [41 x i8] c"STACK_OF_X509_cmp(chain, fixture->chain)\00", align 1
@.str.99 = private unnamed_addr constant [25 x i8] c"store = X509_STORE_new()\00", align 1
@.str.100 = private unnamed_addr constant [33 x i8] c"X509_STORE_add_cert(store, root)\00", align 1
@.str.101 = private unnamed_addr constant [14 x i8] c"chain != NULL\00", align 1

; Function Attrs: nounwind uwtable
define internal i32 @execute_cmp_build_cert_chain_test(ptr noundef %0) #0 {
  %2 = alloca i32, align 4
  %3 = alloca ptr, align 8
  %4 = alloca i32, align 4
  %5 = alloca ptr, align 8
  %6 = alloca ptr, align 8
  %7 = alloca ptr, align 8
  %8 = alloca i32, align 4
  store ptr %0, ptr %3, align 8, !tbaa !19
  call void @llvm.lifetime.start.p0(i64 4, ptr %4) #5
  store i32 0, ptr %4, align 4, !tbaa !21
  call void @llvm.lifetime.start.p0(i64 8, ptr %5) #5
  %9 = load ptr, ptr %3, align 8, !tbaa !19
  %10 = getelementptr inbounds nuw %struct.test_fixture, ptr %9, i32 0, i32 1
  %11 = load ptr, ptr %10, align 8, !tbaa !40
  store ptr %11, ptr %5, align 8, !tbaa !44
  call void @llvm.lifetime.start.p0(i64 8, ptr %6) #5
  call void @llvm.lifetime.start.p0(i64 8, ptr %7) #5
  %12 = load ptr, ptr %3, align 8, !tbaa !19
  %13 = getelementptr inbounds nuw %struct.test_fixture, ptr %12, i32 0, i32 7
  %14 = load ptr, ptr %13, align 8, !tbaa !46
  %15 = load ptr, ptr %3, align 8, !tbaa !19
  %16 = getelementptr inbounds nuw %struct.test_fixture, ptr %15, i32 0, i32 8
  %17 = load ptr, ptr %16, align 8, !tbaa !47
  %18 = load ptr, ptr %3, align 8, !tbaa !19
  %19 = getelementptr inbounds nuw %struct.test_fixture, ptr %18, i32 0, i32 10
  %20 = load i32, ptr %19, align 8, !tbaa !45
  %21 = load ptr, ptr %5, align 8, !tbaa !44
  %22 = getelementptr inbounds nuw %struct.ossl_cmp_ctx_st, ptr %21, i32 0, i32 0
  %23 = load ptr, ptr %22, align 8, !tbaa !71
  %24 = load ptr, ptr %5, align 8, !tbaa !44
  %25 = getelementptr inbounds nuw %struct.ossl_cmp_ctx_st, ptr %24, i32 0, i32 1
  %26 = load ptr, ptr %25, align 8, !tbaa !72
  %27 = call ptr @X509_build_chain(ptr noundef %14, ptr noundef %17, ptr noundef null, i32 noundef %20, ptr noundef %23, ptr noundef %26)
  store ptr %27, ptr %7, align 8, !tbaa !54
  %28 = load ptr, ptr %7, align 8, !tbaa !54
  %29 = call i32 @test_ptr(ptr noundef @.str.14, i32 noundef 347, ptr noundef @.str.96, ptr noundef %28)
  %30 = icmp ne i32 %29, 0
  br i1 %30, label %31, label %39

31:                                               ; preds = %1
  %32 = load ptr, ptr %7, align 8, !tbaa !54
  %33 = load ptr, ptr %3, align 8, !tbaa !19
  %34 = getelementptr inbounds nuw %struct.test_fixture, ptr %33, i32 0, i32 9
  %35 = load ptr, ptr %34, align 8, !tbaa !48
  %36 = call i32 @STACK_OF_X509_cmp(ptr noundef %32, ptr noundef %35)
  %37 = call i32 @test_int_eq(ptr noundef @.str.14, i32 noundef 349, ptr noundef @.str.97, ptr noundef @.str.98, i32 noundef 0, i32 noundef %36)
  store i32 %37, ptr %4, align 4, !tbaa !21
  %38 = load ptr, ptr %7, align 8, !tbaa !54
  call void @OSSL_STACK_OF_X509_free(ptr noundef %38)
  br label %39

39:                                               ; preds = %31, %1
  %40 = load i32, ptr %4, align 4, !tbaa !21
  %41 = icmp ne i32 %40, 0
  br i1 %41, label %43, label %42

42:                                               ; preds = %39
  store i32 0, ptr %2, align 4
  store i32 1, ptr %8, align 4
  br label %100

43:                                               ; preds = %39
  %44 = call ptr @X509_STORE_new()
  store ptr %44, ptr %6, align 8, !tbaa !73
  %45 = call i32 @test_ptr(ptr noundef @.str.14, i32 noundef 355, ptr noundef @.str.99, ptr noundef %44)
  %46 = icmp ne i32 %45, 0
  br i1 %46, label %47, label %97

47:                                               ; preds = %43
  %48 = load ptr, ptr %6, align 8, !tbaa !73
  %49 = load ptr, ptr @root, align 8, !tbaa !11
  %50 = call i32 @X509_STORE_add_cert(ptr noundef %48, ptr noundef %49)
  %51 = icmp ne i32 %50, 0
  %52 = zext i1 %51 to i32
  %53 = call i32 @test_true(ptr noundef @.str.14, i32 noundef 356, ptr noundef @.str.100, i32 noundef %52)
  %54 = icmp ne i32 %53, 0
  br i1 %54, label %55, label %97

55:                                               ; preds = %47
  %56 = load ptr, ptr %6, align 8, !tbaa !73
  %57 = call ptr @X509_STORE_get0_param(ptr noundef %56)
  %58 = call i32 @X509_VERIFY_PARAM_set_flags(ptr noundef %57, i64 noundef 2097152)
  %59 = load ptr, ptr %3, align 8, !tbaa !19
  %60 = getelementptr inbounds nuw %struct.test_fixture, ptr %59, i32 0, i32 7
  %61 = load ptr, ptr %60, align 8, !tbaa !46
  %62 = load ptr, ptr %3, align 8, !tbaa !19
  %63 = getelementptr inbounds nuw %struct.test_fixture, ptr %62, i32 0, i32 8
  %64 = load ptr, ptr %63, align 8, !tbaa !47
  %65 = load ptr, ptr %6, align 8, !tbaa !73
  %66 = load ptr, ptr %3, align 8, !tbaa !19
  %67 = getelementptr inbounds nuw %struct.test_fixture, ptr %66, i32 0, i32 10
  %68 = load i32, ptr %67, align 8, !tbaa !45
  %69 = load ptr, ptr %5, align 8, !tbaa !44
  %70 = getelementptr inbounds nuw %struct.ossl_cmp_ctx_st, ptr %69, i32 0, i32 0
  %71 = load ptr, ptr %70, align 8, !tbaa !71
  %72 = load ptr, ptr %5, align 8, !tbaa !44
  %73 = getelementptr inbounds nuw %struct.ossl_cmp_ctx_st, ptr %72, i32 0, i32 1
  %74 = load ptr, ptr %73, align 8, !tbaa !72
  %75 = call ptr @X509_build_chain(ptr noundef %61, ptr noundef %64, ptr noundef %65, i32 noundef %68, ptr noundef %71, ptr noundef %74)
  store ptr %75, ptr %7, align 8, !tbaa !54
  %76 = load ptr, ptr %3, align 8, !tbaa !19
  %77 = getelementptr inbounds nuw %struct.test_fixture, ptr %76, i32 0, i32 12
  %78 = load i32, ptr %77, align 8, !tbaa !43
  %79 = load ptr, ptr %7, align 8, !tbaa !54
  %80 = icmp ne ptr %79, null
  %81 = zext i1 %80 to i32
  %82 = call i32 @test_int_eq(ptr noundef @.str.14, i32 noundef 361, ptr noundef @.str.79, ptr noundef @.str.101, i32 noundef %78, i32 noundef %81)
  store i32 %82, ptr %4, align 4, !tbaa !21
  %83 = load i32, ptr %4, align 4, !tbaa !21
  %84 = icmp ne i32 %83, 0
  br i1 %84, label %85, label %96

85:                                               ; preds = %55
  %86 = load ptr, ptr %7, align 8, !tbaa !54
  %87 = icmp ne ptr %86, null
  br i1 %87, label %88, label %96

88:                                               ; preds = %85
  %89 = load ptr, ptr %7, align 8, !tbaa !54
  %90 = load ptr, ptr %3, align 8, !tbaa !19
  %91 = getelementptr inbounds nuw %struct.test_fixture, ptr %90, i32 0, i32 9
  %92 = load ptr, ptr %91, align 8, !tbaa !48
  %93 = call i32 @STACK_OF_X509_cmp(ptr noundef %89, ptr noundef %92)
  %94 = call i32 @test_int_eq(ptr noundef @.str.14, i32 noundef 364, ptr noundef @.str.97, ptr noundef @.str.98, i32 noundef 0, i32 noundef %93)
  store i32 %94, ptr %4, align 4, !tbaa !21
  %95 = load ptr, ptr %7, align 8, !tbaa !54
  call void @OSSL_STACK_OF_X509_free(ptr noundef %95)
  br label %96

96:                                               ; preds = %88, %85, %55
  br label %97

97:                                               ; preds = %96, %47, %43
  %98 = load ptr, ptr %6, align 8, !tbaa !73
  call void @X509_STORE_free(ptr noundef %98)
  %99 = load i32, ptr %4, align 4, !tbaa !21
  store i32 %99, ptr %2, align 4
  store i32 1, ptr %8, align 4
  br label %100

100:                                              ; preds = %97, %42
  call void @llvm.lifetime.end.p0(i64 8, ptr %7) #5
  call void @llvm.lifetime.end.p0(i64 8, ptr %6) #5
  call void @llvm.lifetime.end.p0(i64 8, ptr %5) #5
  call void @llvm.lifetime.end.p0(i64 4, ptr %4) #5
  %101 = load i32, ptr %2, align 4
  ret i32 %101
}