; Function Attrs: nounwind uwtable
define internal fastcc i32 @execute_cmp_build_cert_chain_test(ptr noundef nonnull readonly captures(none) %0) unnamed_addr #0 {
  %2 = getelementptr inbounds nuw i8, ptr %0, i64 8
  %3 = load ptr, ptr %2, align 8, !tbaa !36
  %4 = getelementptr inbounds nuw i8, ptr %0, i64 56
  %5 = load ptr, ptr %4, align 8, !tbaa !45
  %6 = getelementptr inbounds nuw i8, ptr %0, i64 64
  %7 = load ptr, ptr %6, align 8, !tbaa !39
  %8 = getelementptr inbounds nuw i8, ptr %0, i64 80
  %9 = load i32, ptr %8, align 8, !tbaa !44
  %10 = load ptr, ptr %3, align 8, !tbaa !52
  %11 = getelementptr inbounds nuw i8, ptr %3, i64 8
  %12 = load ptr, ptr %11, align 8, !tbaa !63
  %13 = tail call ptr @X509_build_chain(ptr noundef %5, ptr noundef %7, ptr noundef null, i32 noundef %9, ptr noundef %10, ptr noundef %12) #5
  %14 = tail call i32 @test_ptr(ptr noundef nonnull @.str.14, i32 noundef 347, ptr noundef nonnull @.str.96, ptr noundef %13) #5
  %.not = icmp eq i32 %14, 0
  br i1 %.not, label %.thread, label %15

15:                                               ; preds = %1
  %16 = getelementptr inbounds nuw i8, ptr %0, i64 72
  %17 = load ptr, ptr %16, align 8, !tbaa !40
  %18 = tail call i32 @STACK_OF_X509_cmp(ptr noundef %13, ptr noundef %17) #5
  %19 = tail call i32 @test_int_eq(ptr noundef nonnull @.str.14, i32 noundef 349, ptr noundef nonnull @.str.97, ptr noundef nonnull @.str.98, i32 noundef 0, i32 noundef %18) #5
  tail call void @OSSL_STACK_OF_X509_free(ptr noundef %13) #5
  %.not31 = icmp eq i32 %19, 0
  br i1 %.not31, label %.thread, label %20

20:                                               ; preds = %15
  %21 = tail call ptr @X509_STORE_new() #5
  %22 = tail call i32 @test_ptr(ptr noundef nonnull @.str.14, i32 noundef 355, ptr noundef nonnull @.str.99, ptr noundef %21) #5
  %.not32 = icmp eq i32 %22, 0
  br i1 %.not32, label %48, label %23

23:                                               ; preds = %20
  %24 = load ptr, ptr @root, align 8, !tbaa !11
  %25 = tail call i32 @X509_STORE_add_cert(ptr noundef %21, ptr noundef %24) #5
  %26 = icmp ne i32 %25, 0
  %27 = zext i1 %26 to i32
  %28 = tail call i32 @test_true(ptr noundef nonnull @.str.14, i32 noundef 356, ptr noundef nonnull @.str.100, i32 noundef %27) #5
  %.not33 = icmp eq i32 %28, 0
  br i1 %.not33, label %48, label %29

29:                                               ; preds = %23
  %30 = tail call ptr @X509_STORE_get0_param(ptr noundef %21) #5
  %31 = tail call i32 @X509_VERIFY_PARAM_set_flags(ptr noundef %30, i64 noundef 2097152) #5
  %32 = load ptr, ptr %4, align 8, !tbaa !45
  %33 = load ptr, ptr %6, align 8, !tbaa !39
  %34 = load i32, ptr %8, align 8, !tbaa !44
  %35 = load ptr, ptr %3, align 8, !tbaa !52
  %36 = load ptr, ptr %11, align 8, !tbaa !63
  %37 = tail call ptr @X509_build_chain(ptr noundef %32, ptr noundef %33, ptr noundef %21, i32 noundef %34, ptr noundef %35, ptr noundef %36) #5
  %38 = getelementptr inbounds nuw i8, ptr %0, i64 88
  %39 = load i32, ptr %38, align 8, !tbaa !43
  %40 = icmp ne ptr %37, null
  %41 = zext i1 %40 to i32
  %42 = tail call i32 @test_int_eq(ptr noundef nonnull @.str.14, i32 noundef 361, ptr noundef nonnull @.str.79, ptr noundef nonnull @.str.101, i32 noundef %39, i32 noundef %41) #5
  %43 = icmp ne i32 %42, 0
  %or.cond = and i1 %40, %43
  br i1 %or.cond, label %44, label %48

44:                                               ; preds = %29
  %45 = load ptr, ptr %16, align 8, !tbaa !40
  %46 = tail call i32 @STACK_OF_X509_cmp(ptr noundef nonnull %37, ptr noundef %45) #5
  %47 = tail call i32 @test_int_eq(ptr noundef nonnull @.str.14, i32 noundef 364, ptr noundef nonnull @.str.97, ptr noundef nonnull @.str.98, i32 noundef 0, i32 noundef %46) #5
  tail call void @OSSL_STACK_OF_X509_free(ptr noundef nonnull %37) #5
  br label %48

48:                                               ; preds = %29, %44, %23, %20
  %.1 = phi i32 [ %47, %44 ], [ %42, %29 ], [ %19, %23 ], [ %19, %20 ]
  tail call void @X509_STORE_free(ptr noundef %21) #5
  br label %.thread

.thread:                                          ; preds = %1, %15, %48
  %.0 = phi i32 [ %.1, %48 ], [ 0, %15 ], [ 0, %1 ]
  ret i32 %.0
}